; Function Attrs: mustprogress nounwind uwtable
define noundef nonnull align 8 dereferenceable(8) ptr @_ZN8facebook5velox9functions17badSubscriptErrorEv() local_unnamed_addr #2 personality ptr @__gxx_personality_v0 {
entry:
  %0 = load atomic i8, ptr @_ZGVZN8facebook5velox9functions17badSubscriptErrorEvE5error acquire, align 8
  %guard.uninitialized = icmp eq i8 %0, 0
  br i1 %guard.uninitialized, label %init.check, label %init.end, !prof !411

init.check:                                       ; preds = %entry
  %1 = tail call i32 @__cxa_guard_acquire(ptr nonnull @_ZGVZN8facebook5velox9functions17badSubscriptErrorEvE5error) #26
  %tobool.not = icmp eq i32 %1, 0
  br i1 %tobool.not, label %init.end, label %init

init:                                             ; preds = %init.check
  tail call void @llvm.trap()
  unreachable

init.end:                                         ; preds = %init.check, %entry
  ret ptr @_ZZN8facebook5velox9functions17badSubscriptErrorEvE5error
}